Certificate:
    Data:
        Version: 3 (0x2)
        Serial Number: 2 (0x2)
    Signature Algorithm: sha256WithRSAEncryption
        Issuer: C=FR, ST=Radius, L=Somewhere, O=Example Inc./emailAddress=admin@example.org, CN=Example Certificate Authority
        Validity
            Not Before: Sep  2 10:12:40 2017 GMT
            Not After : Nov  1 10:12:40 2017 GMT
        Subject: C=FR, ST=Radius, O=Example Inc., CN=user@example.org/emailAddress=user@example.org
        Subject Public Key Info:
            Public Key Algorithm: rsaEncryption
                Public-Key: (2048 bit)
                Modulus:
                    00:d2:a5:5c:cf:6e:a7:9f:fb:ac:ab:37:4e:b0:8c:
                    80:4c:8b:0e:13:e4:14:cf:2f:f8:15:14:6e:9b:8e:
                    c8:66:03:68:7d:c5:16:62:6c:cb:c9:6f:d4:bf:9d:
                    d6:1c:5b:d4:9a:ba:bc:40:70:ac:d8:ca:f8:14:60:
                    32:ab:a3:3d:af:c3:ab:11:06:d0:22:23:ea:bb:b6:
                    43:43:02:69:43:3c:b6:e4:d1:01:c6:e1:d0:6a:fc:
                    b1:4d:96:1d:5e:00:ca:65:83:ef:4e:5f:37:7c:83:
                    d9:e9:f6:64:9f:61:d9:b5:04:16:b6:4b:72:b6:0b:
                    79:7d:1b:e8:46:5c:f3:61:ee:35:70:fa:46:d4:d7:
                    9d:1d:f3:3d:85:1e:6f:1e:73:09:8f:9a:be:c5:07:
                    e0:b2:13:48:a7:98:95:c5:24:5e:fa:d5:9c:49:a0:
                    21:58:ec:48:e6:d8:74:34:82:c6:4b:fe:40:93:4a:
                    e0:f0:ab:0b:3b:cc:15:e8:a3:11:65:6e:17:9e:e8:
                    6f:2e:6e:1c:fb:8d:d6:b3:a3:6f:ac:f9:70:57:5e:
                    0c:75:a7:c7:ed:1e:0c:1c:d3:8a:40:ce:40:5b:80:
                    34:49:c9:84:3c:59:37:f3:d2:67:0e:09:2c:ee:46:
                    c1:51:72:ad:ff:8b:0c:1a:6e:d8:e7:d0:66:f3:ad:
                    a6:f9
                Exponent: 65537 (0x10001)
        X509v3 extensions:
            X509v3 Extended Key Usage: 
                TLS Web Client Authentication
            X509v3 CRL Distribution Points: 

                Full Name:
                  URI:http://www.example.com/example_ca.crl

    Signature Algorithm: sha256WithRSAEncryption
         7b:db:da:97:ab:5b:23:e6:54:cc:87:ea:d1:ae:b0:45:d7:35:
         04:2b:be:10:66:95:28:f1:58:08:89:3c:7a:36:9a:a9:89:e5:
         b8:17:de:66:2a:1e:ed:d2:af:24:6a:9b:52:ba:c4:ce:d0:06:
         93:b1:3f:bd:a9:b6:fc:48:4e:eb:3d:eb:ed:e4:64:98:68:b8:
         34:59:85:d5:fb:38:7e:2e:7d:13:1a:eb:3d:3b:02:7d:0f:3f:
         46:be:24:9d:a5:51:cc:ca:ca:9b:43:1e:2d:85:9c:69:b7:8e:
         82:79:4d:8b:06:30:9d:ec:d4:13:dd:ec:b1:5e:27:18:87:f2:
         4f:9b:67:de:0a:71:38:97:9c:0d:3a:38:d7:16:c5:b5:88:a5:
         be:42:fb:c1:e4:22:f3:31:1e:19:55:41:84:9e:a7:37:a4:c8:
         cb:5d:47:63:f4:0a:77:53:39:0b:d3:b0:23:48:44:8d:14:99:
         8e:7a:2d:ec:f1:05:38:b5:eb:75:fc:cf:e7:6c:87:72:a9:ef:
         f9:08:cf:5f:f4:ae:db:58:91:c8:59:43:8c:cd:88:2a:eb:d4:
         ee:b5:5c:3a:8f:03:18:15:ca:2e:9b:c9:51:dd:95:68:98:de:
         82:54:78:60:ea:3a:2b:f7:99:d5:a1:d7:69:ad:49:dc:9c:0c:
         7f:2e:7b:39
-----BEGIN CERTIFICATE-----
MIIDzzCCAregAwIBAgIBAjANBgkqhkiG9w0BAQsFADCBkzELMAkGA1UEBhMCRlIx
DzANBgNVBAgMBlJhZGl1czESMBAGA1UEBwwJU29tZXdoZXJlMRUwEwYDVQQKDAxF
eGFtcGxlIEluYy4xIDAeBgkqhkiG9w0BCQEWEWFkbWluQGV4YW1wbGUub3JnMSYw
JAYDVQQDDB1FeGFtcGxlIENlcnRpZmljYXRlIEF1dGhvcml0eTAeFw0xNzA5MDIx
MDEyNDBaFw0xNzExMDExMDEyNDBaMHExCzAJBgNVBAYTAkZSMQ8wDQYDVQQIDAZS
YWRpdXMxFTATBgNVBAoMDEV4YW1wbGUgSW5jLjEZMBcGA1UEAwwQdXNlckBleGFt
cGxlLm9yZzEfMB0GCSqGSIb3DQEJARYQdXNlckBleGFtcGxlLm9yZzCCASIwDQYJ
KoZIhvcNAQEBBQADggEPADCCAQoCggEBANKlXM9up5/7rKs3TrCMgEyLDhPkFM8v
+BUUbpuOyGYDaH3FFmJsy8lv1L+d1hxb1Jq6vEBwrNjK+BRgMqujPa/DqxEG0CIj
6ru2Q0MCaUM8tuTRAcbh0Gr8sU2WHV4AymWD705fN3yD2en2ZJ9h2bUEFrZLcrYL
eX0b6EZc82HuNXD6RtTXnR3zPYUebx5zCY+avsUH4LITSKeYlcUkXvrVnEmgIVjs
SObYdDSCxkv+QJNK4PCrCzvMFeijEWVuF57oby5uHPuN1rOjb6z5cFdeDHWnx+0e
DBzTikDOQFuANEnJhDxZN/PSZw4JLO5GwVFyrf+LDBpu2OfQZvOtpvkCAwEAAaNP
ME0wEwYDVR0lBAwwCgYIKwYBBQUHAwIwNgYDVR0fBC8wLTAroCmgJ4YlaHR0cDov
L3d3dy5leGFtcGxlLmNvbS9leGFtcGxlX2NhLmNybDANBgkqhkiG9w0BAQsFAAOC
AQEAe9val6tbI+ZUzIfq0a6wRdc1BCu+EGaVKPFYCIk8ejaaqYnluBfeZioe7dKv
JGqbUrrEztAGk7E/vam2/EhO6z3r7eRkmGi4NFmF1fs4fi59ExrrPTsCfQ8/Rr4k
naVRzMrKm0MeLYWcabeOgnlNiwYwnezUE93ssV4nGIfyT5tn3gpxOJecDTo41xbF
tYilvkL7weQi8zEeGVVBhJ6nN6TIy11HY/QKd1M5C9OwI0hEjRSZjnot7PEFOLXr
dfzP52yHcqnv+QjPX/Su21iRyFlDjM2IKuvU7rVcOo8DGBXKLpvJUd2VaJjeglR4
YOo6K/eZ1aHXaa1J3JwMfy57OQ==
-----END CERTIFICATE-----
