Certificate:
    Data:
        Version: 3 (0x2)
        Serial Number: 1 (0x1)
    Signature Algorithm: sha256WithRSAEncryption
        Issuer: C=FR, ST=Radius, L=Somewhere, O=Example Inc./emailAddress=admin@example.org, CN=Example Certificate Authority
        Validity
            Not Before: Sep  2 10:12:40 2017 GMT
            Not After : Nov  1 10:12:40 2017 GMT
        Subject: C=FR, ST=Radius, O=Example Inc., CN=Example Server Certificate/emailAddress=admin@example.org
        Subject Public Key Info:
            Public Key Algorithm: rsaEncryption
                Public-Key: (2048 bit)
                Modulus:
                    00:c3:61:e4:45:a9:b5:c3:0f:3f:60:d5:8f:2e:43:
                    e5:d9:3b:ce:85:67:98:16:79:02:0a:a7:7a:0a:5b:
                    25:37:fa:cc:97:48:92:27:f2:9f:07:e0:47:a2:b1:
                    a8:0e:ea:7e:0a:bf:20:28:b5:cf:3c:24:e3:6e:70:
                    1c:7c:49:de:ec:09:53:8b:0c:e1:49:59:06:dd:e8:
                    7d:66:37:c4:f6:76:07:5a:d1:87:a7:62:62:20:c9:
                    72:19:94:cc:05:5b:04:b6:a7:a0:c3:25:9b:7f:47:
                    22:56:9d:73:73:60:8d:f7:b3:07:c3:49:92:c0:8e:
                    c7:a7:69:6a:d5:99:d7:5b:94:49:b0:0a:73:94:31:
                    14:cd:2e:57:f5:d9:58:17:8c:47:35:99:d0:d1:17:
                    f6:4d:3b:c0:ac:eb:e5:2f:db:17:37:fa:18:5e:3f:
                    43:ee:de:40:ff:ab:b3:17:06:0f:ec:ec:67:dd:45:
                    61:ab:a7:72:a1:bb:90:ad:dd:94:83:4c:77:df:ae:
                    43:44:3a:f2:20:3e:0b:2f:27:83:d6:a6:f6:5b:29:
                    da:4a:43:f1:7e:60:dd:ec:40:8a:36:88:92:a1:a3:
                    5e:b0:cc:5f:f2:ee:30:e9:d5:f2:cb:e1:63:28:f2:
                    4f:78:83:3a:e6:a8:f3:b5:fa:7d:dd:e5:9c:0f:ee:
                    ee:61
                Exponent: 65537 (0x10001)
        X509v3 extensions:
            X509v3 Extended Key Usage: 
                TLS Web Server Authentication
            X509v3 CRL Distribution Points: 

                Full Name:
                  URI:http://www.example.com/example_ca.crl

    Signature Algorithm: sha256WithRSAEncryption
         13:07:4c:b7:ed:19:1c:7f:cb:ca:82:12:9f:88:8f:65:0e:c1:
         45:5c:ea:30:d7:8b:e9:3c:f8:5c:e9:09:34:f7:3b:d0:b8:57:
         df:e5:5a:bb:1f:ea:07:96:1b:04:e0:f6:ed:99:6a:5c:13:2d:
         0b:ed:50:c5:35:0e:d9:c9:78:4e:12:46:ca:e2:46:33:c3:01:
         0f:f9:25:8c:6a:8c:21:35:14:19:7d:dc:6f:22:4c:4b:48:9c:
         5f:ab:1e:e7:2a:fd:0e:aa:ac:20:83:48:42:92:12:56:49:62:
         92:25:ac:70:f5:7d:a7:c1:e9:7a:4e:cc:63:59:a6:4f:4f:10:
         b7:6e:15:f0:7e:ae:0f:10:b5:e8:5d:f9:54:b1:85:ea:d5:99:
         59:74:a2:f1:a1:ce:d7:b5:d7:a7:a4:a2:7b:a3:a3:48:0c:20:
         9a:ef:7a:fc:75:24:bc:89:63:a2:af:f1:de:87:5f:c1:1e:b0:
         2b:e8:14:ea:72:5d:9a:23:c6:e9:85:f1:95:f3:d2:62:cc:ed:
         9f:46:e5:00:74:3b:1d:3c:6e:03:3c:5a:78:2a:cc:79:0b:3f:
         ee:ea:60:25:4a:1d:49:27:53:67:52:2a:8b:68:48:7d:22:de:
         c9:b4:52:0a:37:f8:e1:ca:9c:9c:34:86:b1:9c:d6:d3:ea:51:
         dc:1a:c2:3c
-----BEGIN CERTIFICATE-----
MIID2jCCAsKgAwIBAgIBATANBgkqhkiG9w0BAQsFADCBkzELMAkGA1UEBhMCRlIx
DzANBgNVBAgMBlJhZGl1czESMBAGA1UEBwwJU29tZXdoZXJlMRUwEwYDVQQKDAxF
eGFtcGxlIEluYy4xIDAeBgkqhkiG9w0BCQEWEWFkbWluQGV4YW1wbGUub3JnMSYw
JAYDVQQDDB1FeGFtcGxlIENlcnRpZmljYXRlIEF1dGhvcml0eTAeFw0xNzA5MDIx
MDEyNDBaFw0xNzExMDExMDEyNDBaMHwxCzAJBgNVBAYTAkZSMQ8wDQYDVQQIDAZS
YWRpdXMxFTATBgNVBAoMDEV4YW1wbGUgSW5jLjEjMCEGA1UEAwwaRXhhbXBsZSBT
ZXJ2ZXIgQ2VydGlmaWNhdGUxIDAeBgkqhkiG9w0BCQEWEWFkbWluQGV4YW1wbGUu
b3JnMIIBIjANBgkqhkiG9w0BAQEFAAOCAQ8AMIIBCgKCAQEAw2HkRam1ww8/YNWP
LkPl2TvOhWeYFnkCCqd6ClslN/rMl0iSJ/KfB+BHorGoDup+Cr8gKLXPPCTjbnAc
fEne7AlTiwzhSVkG3eh9ZjfE9nYHWtGHp2JiIMlyGZTMBVsEtqegwyWbf0ciVp1z
c2CN97MHw0mSwI7Hp2lq1ZnXW5RJsApzlDEUzS5X9dlYF4xHNZnQ0Rf2TTvArOvl
L9sXN/oYXj9D7t5A/6uzFwYP7Oxn3UVhq6dyobuQrd2Ug0x3365DRDryID4LLyeD
1qb2WynaSkPxfmDd7ECKNoiSoaNesMxf8u4w6dXyy+FjKPJPeIM65qjztfp93eWc
D+7uYQIDAQABo08wTTATBgNVHSUEDDAKBggrBgEFBQcDATA2BgNVHR8ELzAtMCug
KaAnhiVodHRwOi8vd3d3LmV4YW1wbGUuY29tL2V4YW1wbGVfY2EuY3JsMA0GCSqG
SIb3DQEBCwUAA4IBAQATB0y37Rkcf8vKghKfiI9lDsFFXOow14vpPPhc6Qk09zvQ
uFff5Vq7H+oHlhsE4PbtmWpcEy0L7VDFNQ7ZyXhOEkbK4kYzwwEP+SWMaowhNRQZ
fdxvIkxLSJxfqx7nKv0Oqqwgg0hCkhJWSWKSJaxw9X2nwel6TsxjWaZPTxC3bhXw
fq4PELXoXflUsYXq1ZlZdKLxoc7XtdenpKJ7o6NIDCCa73r8dSS8iWOir/Heh1/B
HrAr6BTqcl2aI8bphfGV89JizO2fRuUAdDsdPG4DPFp4Ksx5Cz/u6mAlSh1JJ1Nn
UiqLaEh9It7JtFIKN/jhypycNIaxnNbT6lHcGsI8
-----END CERTIFICATE-----
